; Function Attrs: nounwind uwtable
define range(i32 0, 2) i32 @ossl_qtx_discard_enc_level(ptr noundef %0, i32 noundef %1) local_unnamed_addr #0 {
  %3 = icmp ugt i32 %1, 3
  br i1 %3, label %6, label %4

4:                                                ; preds = %2
  %5 = getelementptr inbounds nuw i8, ptr %0, i64 16
  tail call void @ossl_qrl_enc_level_set_discard(ptr noundef nonnull %5, i32 noundef %1) #11
  br label %6

6:                                                ; preds = %2, %4
  %.0 = phi i32 [ 1, %4 ], [ 0, %2 ]
  ret i32 %.0
}